target datalayout = "e-m:e-p270:32:32-p271:32:32-p272:64:64-i64:64-i128:128-f80:128-n8:16:32:64-S128"
target triple = "x86_64-pc-linux-gnu"

%"class.icu_77::LoadedNormalizer2Impl" = type { %"class.icu_77::Normalizer2Impl", ptr, ptr }
%"class.icu_77::Normalizer2Impl" = type { %"class.icu_77::UObject", i16, i16, i16, i16, i16, i16, i16, i16, i16, i16, i16, i16, i16, i16, ptr, ptr, ptr, %"struct.icu_77::UInitOnce", ptr }
%"class.icu_77::UObject" = type { ptr }
%"struct.icu_77::UInitOnce" = type { %"struct.std::atomic", i32 }
%"struct.std::atomic" = type { %"struct.std::__atomic_base" }
%"struct.std::__atomic_base" = type { i32 }

@_ZTVN6icu_7721LoadedNormalizer2ImplE = unnamed_addr constant { [5 x ptr] } { [5 x ptr] [ptr null, ptr @_ZTIN6icu_7721LoadedNormalizer2ImplE, ptr @_ZN6icu_7721LoadedNormalizer2ImplD1Ev, ptr @_ZN6icu_7721LoadedNormalizer2ImplD0Ev, ptr @_ZNK6icu_777UObject17getDynamicClassIDEv] }, align 8

; Function Attrs: mustprogress nounwind uwtable
define void @_ZN6icu_7721LoadedNormalizer2ImplD2Ev(ptr noundef nonnull align 8 dereferenceable(96) %0) unnamed_addr #0 align 2 personality ptr @__gxx_personality_v0 {
  %2 = alloca ptr, align 8
  store ptr %0, ptr %2, align 8, !tbaa !3
  %3 = load ptr, ptr %2, align 8
  store ptr getelementptr inbounds inrange(-16, 24) ({ [5 x ptr] }, ptr @_ZTVN6icu_7721LoadedNormalizer2ImplE, i32 0, i32 0, i32 2), ptr %3, align 8, !tbaa !8
  %4 = getelementptr inbounds nuw %"class.icu_77::LoadedNormalizer2Impl", ptr %3, i32 0, i32 1
  %5 = load ptr, ptr %4, align 8, !tbaa !10
  invoke void @udata_close_77(ptr noundef %5)
          to label %6 unwind label %10

6:                                                ; preds = %1
  %7 = getelementptr inbounds nuw %"class.icu_77::LoadedNormalizer2Impl", ptr %3, i32 0, i32 2
  %8 = load ptr, ptr %7, align 8, !tbaa !26
  invoke void @ucptrie_close_77(ptr noundef %8)
          to label %9 unwind label %10

9:                                                ; preds = %6
  call void @_ZN6icu_7715Normalizer2ImplD2Ev(ptr noundef nonnull align 8 dereferenceable(80) %3) #12
  ret void

10:                                               ; preds = %6, %1
  %11 = landingpad { ptr, i32 }
          catch ptr null
  %12 = extractvalue { ptr, i32 } %11, 0
  call void @__clang_call_terminate(ptr %12) #13
  unreachable
}