; Function Attrs: mustprogress nounwind uwtable
define void @_ZN6icu_7721LoadedNormalizer2ImplD2Ev(ptr noundef nonnull align 8 dereferenceable(96) initializes((0, 8)) %0) unnamed_addr #0 align 2 personality ptr @__gxx_personality_v0 {
  store ptr getelementptr inbounds nuw inrange(-16, 24) (i8, ptr @_ZTVN6icu_7721LoadedNormalizer2ImplE, i64 16), ptr %0, align 8, !tbaa !3
  %2 = getelementptr inbounds nuw i8, ptr %0, i64 80
  %3 = load ptr, ptr %2, align 8, !tbaa !6
  invoke void @udata_close_77(ptr noundef %3)
          to label %4 unwind label %8

4:                                                ; preds = %1
  %5 = getelementptr inbounds nuw i8, ptr %0, i64 88
  %6 = load ptr, ptr %5, align 8, !tbaa !24
  invoke void @ucptrie_close_77(ptr noundef %6)
          to label %7 unwind label %8

7:                                                ; preds = %4
  tail call void @_ZN6icu_7715Normalizer2ImplD2Ev(ptr noundef nonnull align 8 dereferenceable(80) %0) #13
  ret void

8:                                                ; preds = %4, %1
  %9 = landingpad { ptr, i32 }
          catch ptr null
  %10 = extractvalue { ptr, i32 } %9, 0
  tail call void @__clang_call_terminate(ptr %10) #14
  unreachable
}